; Function Attrs: nounwind uwtable
define dso_local void @tuplesort_markpos(ptr noundef %0) local_unnamed_addr #0 {
  %2 = getelementptr inbounds nuw i8, ptr %0, i64 56
  %3 = load ptr, ptr %2, align 8
  %4 = load ptr, ptr @CurrentMemoryContext, align 8
  store ptr %3, ptr @CurrentMemoryContext, align 8
  %5 = getelementptr inbounds nuw i8, ptr %0, i64 112
  %6 = load i32, ptr %5, align 8
  switch i32 %6, label %16 [
    i32 3, label %7
    i32 4, label %11
  ]

7:                                                ; preds = %1
  %8 = getelementptr inbounds nuw i8, ptr %0, i64 304
  %9 = load i32, ptr %8, align 8
  %10 = getelementptr inbounds nuw i8, ptr %0, i64 320
  store i32 %9, ptr %10, align 8
  br label %19

11:                                               ; preds = %1
  %12 = getelementptr inbounds nuw i8, ptr %0, i64 296
  %13 = load ptr, ptr %12, align 8
  %14 = getelementptr inbounds nuw i8, ptr %0, i64 312
  %15 = getelementptr inbounds nuw i8, ptr %0, i64 320
  tail call void @LogicalTapeTell(ptr noundef %13, ptr noundef nonnull %14, ptr noundef nonnull %15) #13
  br label %19

16:                                               ; preds = %1
  %17 = tail call zeroext i1 @errstart_cold(i32 noundef 21, ptr noundef null) #12
  tail call void @llvm.assume(i1 %17)
  %18 = tail call i32 (ptr, ...) @errmsg_internal(ptr noundef nonnull @.str.5) #13
  tail call void @errfinish(ptr noundef nonnull @.str.1, i32 noundef 2454, ptr noundef nonnull @__func__.tuplesort_markpos) #13
  unreachable

19:                                               ; preds = %11, %7
  %20 = getelementptr inbounds nuw i8, ptr %0, i64 308
  %21 = load i8, ptr %20, align 4, !range !4, !noundef !5
  %22 = getelementptr inbounds nuw i8, ptr %0, i64 324
  store i8 %21, ptr %22, align 4
  store ptr %4, ptr @CurrentMemoryContext, align 8
  ret void
}